target datalayout = "e-m:e-p270:32:32-p271:32:32-p272:64:64-i64:64-i128:128-f80:128-n8:16:32:64-S128"
target triple = "x86_64-pc-linux-gnu"

; Function Attrs: nounwind null_pointer_is_valid sspstrong uwtable
define internal i32 @get_size_by_coltype(i32 noundef %0) #5 {
  %2 = alloca i32, align 4
  %3 = alloca i32, align 4
  store i32 %0, ptr %3, align 4
  %4 = load i32, ptr %3, align 4
  switch i32 %4, label %18 [
    i32 48, label %5
    i32 52, label %6
    i32 56, label %7
    i32 127, label %8
    i32 59, label %9
    i32 62, label %10
    i32 61, label %11
    i32 58, label %12
    i32 50, label %13
    i32 104, label %14
    i32 60, label %15
    i32 122, label %16
    i32 36, label %17
  ]

5:                                                ; preds = %1
  store i32 1, ptr %2, align 4
  br label %19

6:                                                ; preds = %1
  store i32 2, ptr %2, align 4
  br label %19

7:                                                ; preds = %1
  store i32 4, ptr %2, align 4
  br label %19

8:                                                ; preds = %1
  store i32 8, ptr %2, align 4
  br label %19

9:                                                ; preds = %1
  store i32 4, ptr %2, align 4
  br label %19

10:                                               ; preds = %1
  store i32 8, ptr %2, align 4
  br label %19

11:                                               ; preds = %1
  store i32 8, ptr %2, align 4
  br label %19

12:                                               ; preds = %1
  store i32 4, ptr %2, align 4
  br label %19

13:                                               ; preds = %1
  store i32 1, ptr %2, align 4
  br label %19

14:                                               ; preds = %1
  store i32 1, ptr %2, align 4
  br label %19

15:                                               ; preds = %1
  store i32 8, ptr %2, align 4
  br label %19

16:                                               ; preds = %1
  store i32 4, ptr %2, align 4
  br label %19

17:                                               ; preds = %1
  store i32 16, ptr %2, align 4
  br label %19

18:                                               ; preds = %1
  store i32 -1, ptr %2, align 4
  br label %19

19:                                               ; preds = %18, %17, %16, %15, %14, %13, %12, %11, %10, %9, %8, %7, %6, %5
  %20 = load i32, ptr %2, align 4
  ret i32 %20
}