; Function Attrs: mustprogress nofree norecurse nosync nounwind null_pointer_is_valid sspstrong willreturn memory(none) uwtable
define internal fastcc range(i32 -1, 17) i32 @get_size_by_coltype(i32 noundef %0) unnamed_addr #9 {
  switch i32 %0, label %6 [
    i32 48, label %7
    i32 52, label %2
    i32 56, label %3
    i32 127, label %4
    i32 59, label %3
    i32 62, label %4
    i32 61, label %4
    i32 58, label %3
    i32 50, label %7
    i32 104, label %7
    i32 60, label %4
    i32 122, label %3
    i32 36, label %5
  ]

2:                                                ; preds = %1
  br label %7

3:                                                ; preds = %1, %1, %1, %1
  br label %7

4:                                                ; preds = %1, %1, %1, %1
  br label %7

5:                                                ; preds = %1
  br label %7

6:                                                ; preds = %1
  br label %7

7:                                                ; preds = %1, %1, %1, %6, %5, %4, %3, %2
  %.0 = phi i32 [ -1, %6 ], [ 16, %5 ], [ 8, %4 ], [ 4, %3 ], [ 2, %2 ], [ 1, %1 ], [ 1, %1 ], [ 1, %1 ]
  ret i32 %.0
}